; Function Attrs: nofree norecurse nounwind memory(readwrite, inaccessiblemem: none) uwtable
define internal fastcc void @mi_page_queue_remove(ptr noundef %0, ptr noundef %1) unnamed_addr #5 {
  %3 = getelementptr inbounds nuw i8, ptr %1, i64 64
  %4 = load atomic i64, ptr %3 monotonic, align 8
  %5 = inttoptr i64 %4 to ptr
  %6 = getelementptr inbounds nuw i8, ptr %1, i64 80
  %7 = load ptr, ptr %6, align 8, !tbaa !26
  %.not = icmp eq ptr %7, null
  %.phi.trans.insert = getelementptr inbounds nuw i8, ptr %1, i64 72
  %.pre = load ptr, ptr %.phi.trans.insert, align 8, !tbaa !16
  br i1 %.not, label %._crit_edge, label %8

8:                                                ; preds = %2
  %9 = getelementptr inbounds nuw i8, ptr %7, i64 72
  store ptr %.pre, ptr %9, align 8, !tbaa !16
  br label %._crit_edge

._crit_edge:                                      ; preds = %2, %8
  %.not22 = icmp eq ptr %.pre, null
  br i1 %.not22, label %12, label %10

10:                                               ; preds = %._crit_edge
  %11 = getelementptr inbounds nuw i8, ptr %.pre, i64 80
  store ptr %7, ptr %11, align 8, !tbaa !26
  br label %12

12:                                               ; preds = %10, %._crit_edge
  %13 = getelementptr inbounds nuw i8, ptr %0, i64 8
  %14 = load ptr, ptr %13, align 8, !tbaa !11
  %15 = icmp eq ptr %1, %14
  br i1 %15, label %16, label %18

16:                                               ; preds = %12
  %17 = load ptr, ptr %6, align 8, !tbaa !26
  store ptr %17, ptr %13, align 8, !tbaa !11
  br label %18

18:                                               ; preds = %16, %12
  %19 = load ptr, ptr %0, align 8, !tbaa !10
  %20 = icmp eq ptr %1, %19
  br i1 %20, label %21, label %mi_heap_queue_first_update.exit

21:                                               ; preds = %18
  store ptr %.pre, ptr %0, align 8, !tbaa !10
  %22 = getelementptr inbounds nuw i8, ptr %0, i64 16
  %23 = load i64, ptr %22, align 8, !tbaa !3
  %24 = icmp ugt i64 %23, 1024
  br i1 %24, label %mi_heap_queue_first_update.exit, label %25

25:                                               ; preds = %21
  %spec.store.select.i = select i1 %.not22, ptr @_mi_page_empty, ptr %.pre
  %26 = add nuw nsw i64 %23, 7
  %27 = lshr i64 %26, 3
  %28 = getelementptr inbounds nuw i8, ptr %5, i64 232
  %29 = getelementptr inbounds nuw ptr, ptr %28, i64 %27
  %30 = load ptr, ptr %29, align 8, !tbaa !23
  %31 = icmp eq ptr %30, %spec.store.select.i
  br i1 %31, label %mi_heap_queue_first_update.exit, label %32

32:                                               ; preds = %25
  %33 = icmp samesign ult i64 %23, 9
  br i1 %33, label %.lr.ph.i.preheader, label %34

34:                                               ; preds = %32
  %35 = icmp samesign ult i64 %23, 65
  br i1 %35, label %36, label %40

36:                                               ; preds = %34
  %37 = trunc nuw i64 %27 to i8
  %38 = add nuw nsw i8 %37, 1
  %39 = and i8 %38, 30
  br label %mi_bin.exit.i

40:                                               ; preds = %34
  %41 = add nsw i64 %27, -1
  %42 = tail call range(i64 50, 61) i64 @llvm.ctlz.i64(i64 range(i64 8, 16384) %41, i1 true)
  %43 = trunc nuw nsw i64 %42 to i8
  %44 = xor i8 %43, -1
  %45 = shl i8 %44, 2
  %46 = sub nuw nsw i64 61, %42
  %47 = lshr i64 %41, %46
  %48 = trunc i64 %47 to i8
  %49 = and i8 %48, 3
  %50 = add nsw i8 %45, -3
  %51 = add nuw nsw i8 %50, %49
  br label %mi_bin.exit.i

mi_bin.exit.i:                                    ; preds = %40, %36
  %.0.i.i = phi i8 [ %39, %36 ], [ %51, %40 ]
  %52 = getelementptr inbounds nuw i8, ptr %5, i64 1264
  br label %53

53:                                               ; preds = %mi_bin.exit34.i, %mi_bin.exit.i
  %.pn.i = phi ptr [ %0, %mi_bin.exit.i ], [ %.027.i, %mi_bin.exit34.i ]
  %.027.i = getelementptr inbounds i8, ptr %.pn.i, i64 -24
  %54 = getelementptr inbounds i8, ptr %.pn.i, i64 -8
  %55 = load i64, ptr %54, align 8, !tbaa !3
  %56 = add i64 %55, 7
  %57 = lshr i64 %56, 3
  %58 = icmp ult i64 %56, 16
  br i1 %58, label %mi_bin.exit34.i, label %59

59:                                               ; preds = %53
  %60 = icmp ult i64 %56, 72
  br i1 %60, label %61, label %65

61:                                               ; preds = %59
  %62 = trunc nuw i64 %57 to i8
  %63 = add nuw nsw i8 %62, 1
  %64 = and i8 %63, 30
  br label %mi_bin.exit34.i

65:                                               ; preds = %59
  %66 = icmp ugt i64 %56, 131079
  br i1 %66, label %mi_bin.exit34.i, label %67

67:                                               ; preds = %65
  %68 = add nsw i64 %57, -1
  %69 = tail call range(i64 50, 61) i64 @llvm.ctlz.i64(i64 range(i64 8, 16384) %68, i1 true)
  %70 = trunc nuw nsw i64 %69 to i8
  %71 = xor i8 %70, -1
  %72 = shl i8 %71, 2
  %73 = sub nuw nsw i64 61, %69
  %74 = lshr i64 %68, %73
  %75 = trunc i64 %74 to i8
  %76 = and i8 %75, 3
  %77 = add nsw i8 %72, -3
  %78 = add nuw nsw i8 %77, %76
  br label %mi_bin.exit34.i

mi_bin.exit34.i:                                  ; preds = %67, %65, %61, %53
  %.0.i33.i = phi i8 [ %64, %61 ], [ %78, %67 ], [ 1, %53 ], [ 73, %65 ]
  %79 = icmp eq i8 %.0.i.i, %.0.i33.i
  %80 = icmp ugt ptr %.027.i, %52
  %81 = select i1 %79, i1 %80, i1 false
  br i1 %81, label %53, label %82, !llvm.loop !24

82:                                               ; preds = %mi_bin.exit34.i
  %83 = add nuw nsw i64 %57, 1
  %.not.i = icmp samesign ult i64 %57, %27
  %spec.select.i = select i1 %.not.i, i64 %83, i64 %27
  %.not3235.i = icmp samesign ugt i64 %spec.select.i, %27
  br i1 %.not3235.i, label %mi_heap_queue_first_update.exit, label %.lr.ph.i.preheader

.lr.ph.i.preheader:                               ; preds = %82, %32
  %.036.i.ph = phi i64 [ 0, %32 ], [ %spec.select.i, %82 ]
  br label %.lr.ph.i

.lr.ph.i:                                         ; preds = %.lr.ph.i.preheader, %.lr.ph.i
  %.036.i = phi i64 [ %85, %.lr.ph.i ], [ %.036.i.ph, %.lr.ph.i.preheader ]
  %84 = getelementptr inbounds nuw ptr, ptr %28, i64 %.036.i
  store ptr %spec.store.select.i, ptr %84, align 8, !tbaa !23
  %85 = add nuw nsw i64 %.036.i, 1
  %exitcond.not.i = icmp eq i64 %.036.i, %27
  br i1 %exitcond.not.i, label %mi_heap_queue_first_update.exit, label %.lr.ph.i, !llvm.loop !25

mi_heap_queue_first_update.exit:                  ; preds = %.lr.ph.i, %82, %25, %21, %18
  %86 = getelementptr inbounds nuw i8, ptr %1, i64 72
  %87 = getelementptr inbounds nuw i8, ptr %5, i64 192
  %88 = load i64, ptr %87, align 8, !tbaa !39
  %89 = add i64 %88, -1
  store i64 %89, ptr %87, align 8, !tbaa !39
  %90 = getelementptr inbounds nuw i8, ptr %1, i64 14
  tail call void @llvm.memset.p0.i64(ptr noundef nonnull align 8 dereferenceable(16) %86, i8 0, i64 16, i1 false)
  %91 = load i8, ptr %90, align 2
  %92 = and i8 %91, -2
  store i8 %92, ptr %90, align 2
  ret void
}